; Function Attrs: mustprogress noreturn uwtable
define internal void @_ZN7mitsubaL14png_error_funcEP14png_struct_defPKc(ptr nocapture readnone %0, ptr noundef %1) #13 personality ptr @__gxx_personality_v0 {
  %3 = alloca ptr, align 8
  %4 = alloca %"class.std::__1::basic_string", align 8
  store ptr %1, ptr %3, align 8
  %5 = load ptr, ptr @_ZN7mitsuba7m_classE, align 8
  call void @_ZN10tinyformat6formatIJPKcEEENSt3__112basic_stringIcNS3_11char_traitsIcEENS3_9allocatorIcEEEES2_DpRKT_(ptr dead_on_unwind nonnull writable sret(%"class.std::__1::basic_string") align 8 %4, ptr noundef nonnull @.str.173, ptr noundef nonnull align 8 dereferenceable(8) %3)
  invoke void @_ZN7mitsuba6detail5ThrowENS_8LogLevelEPKNS_5ClassEPKciRKNSt3__112basic_stringIcNS7_11char_traitsIcEENS7_9allocatorIcEEEE(i32 noundef 400, ptr noundef %5, ptr noundef nonnull @.str.10, i32 noundef 1666, ptr noundef nonnull align 8 dereferenceable(24) %4) #37
          to label %6 unwind label %7

6:                                                ; preds = %2
  unreachable

7:                                                ; preds = %2
  %8 = landingpad { ptr, i32 }
          cleanup
  call void @_ZNSt3__112basic_stringIcNS_11char_traitsIcEENS_9allocatorIcEEED1Ev(ptr noundef nonnull align 8 dereferenceable(24) %4) #36
  resume { ptr, i32 } %8
}